; Function Attrs: mustprogress nofree norecurse nosync nounwind willreturn memory(read, argmem: readwrite, inaccessiblemem: none) uwtable
define hidden void @Wayland_GetWindowSizeInPixels(ptr noundef readnone captures(none) %0, ptr noundef readonly captures(none) %1, ptr noundef writeonly captures(none) initializes((0, 4)) %2, ptr noundef writeonly captures(none) initializes((0, 4)) %3) local_unnamed_addr #6 {
  %5 = getelementptr inbounds nuw i8, ptr %1, i64 392
  %6 = load ptr, ptr %5, align 8
  %7 = getelementptr inbounds nuw i8, ptr %6, i64 320
  %8 = load i32, ptr %7, align 8
  store i32 %8, ptr %2, align 4
  %9 = getelementptr inbounds nuw i8, ptr %6, i64 324
  %10 = load i32, ptr %9, align 4
  store i32 %10, ptr %3, align 4
  ret void
}